; Function Attrs: nounwind uwtable
define i32 @execve(ptr noundef nonnull %0, ptr noundef nonnull %1, ptr noundef %2) local_unnamed_addr #0 {
  tail call void (ptr, ...) @debug_print(ptr noundef nonnull @.str.3, ptr noundef nonnull %0)
  %4 = tail call fastcc zeroext i1 @is_ld(ptr noundef %0)
  br i1 %4, label %5, label %get_mold_path.exit

5:                                                ; preds = %3
  %6 = tail call ptr @getenv(ptr noundef nonnull @.str.15) #11
  %.not.i = icmp eq ptr %6, null
  br i1 %.not.i, label %7, label %get_mold_path.exit

7:                                                ; preds = %5
  %8 = load ptr, ptr @stderr, align 8, !tbaa !3
  %9 = tail call i64 @fwrite(ptr nonnull @.str.16, i64 21, i64 1, ptr %8) #12
  tail call void @exit(i32 noundef 1) #13
  unreachable

get_mold_path.exit:                               ; preds = %5, %3
  %.0 = phi ptr [ %0, %3 ], [ %6, %5 ]
  %10 = tail call ptr @dlsym(ptr noundef nonnull inttoptr (i64 -1 to ptr), ptr noundef nonnull @.str.4) #11
  %11 = tail call i32 %10(ptr noundef nonnull %.0, ptr noundef nonnull %1, ptr noundef %2) #11
  ret i32 %11
}